; Function Attrs: mustprogress uwtable
define internal void @"_ZNSt17_Function_handlerIFvvEZN12_GLOBAL__N_125TimeoutTest_LockWhen_Test8TestBodyEvE3$_0E9_M_invokeERKSt9_Any_data"(ptr nocapture noundef nonnull readonly align 8 dereferenceable(16) %__functor) #3 align 2 personality ptr @__gxx_personality_v0 {
entry:
  %0 = load ptr, ptr %__functor, align 8
  tail call void @_ZN4absl5Mutex4LockEv(ptr noundef nonnull align 8 dereferenceable(8) %0)
  %1 = getelementptr inbounds i8, ptr %__functor, i64 8
  %2 = load ptr, ptr %1, align 8
  store i8 1, ptr %2, align 1
  invoke void @_ZN4absl5Mutex6UnlockEv(ptr noundef nonnull align 8 dereferenceable(8) %0)
          to label %"_ZSt10__invoke_rIvRZN12_GLOBAL__N_125TimeoutTest_LockWhen_Test8TestBodyEvE3$_0JEENSt9enable_ifIX16is_invocable_r_vIT_T0_DpT1_EES5_E4typeEOS6_DpOS7_.exit" unwind label %terminate.lpad.i.i.i.i

terminate.lpad.i.i.i.i:                           ; preds = %entry
  %3 = landingpad { ptr, i32 }
          catch ptr null
  %4 = extractvalue { ptr, i32 } %3, 0
  tail call void @__clang_call_terminate(ptr %4) #38
  unreachable

"_ZSt10__invoke_rIvRZN12_GLOBAL__N_125TimeoutTest_LockWhen_Test8TestBodyEvE3$_0JEENSt9enable_ifIX16is_invocable_r_vIT_T0_DpT1_EES5_E4typeEOS6_DpOS7_.exit": ; preds = %entry
  ret void
}